0xffffffff8106ef56: adc byte [r15], cl ; xchg eax, esp ; retn 0xD284 ;  (9 found)
0xffffffff810ca718: adc byte [r15], r9L ; xchg eax, esp ; retn 0xD284 ;  (3 found)
0xffffffff812d39d1: adc byte [rbp+rcx*4+0x68], cl ; sub byte [rdi], cl ; xchg eax, esp ; retn 0xD284 ;  (1 found)
0xffffffff81500a2b: adc byte [rcx+0x0F], al ; xchg eax, esp ; retn 0x8D47 ;  (1 found)
0xffffffff8166a017: adc byte [rcx-0x75], cl ; add byte [r15], r9L ; xchg eax, esp ; retn 0x008B ;  (1 found)
0xffffffff81469c0c: adc byte [rdi+rcx], al ; xchg eax, esp ; retn 0x8389 ;  (1 found)
0xffffffff816d17d1: adc byte [rdi+rdi*8+0x7F9410CC], dl ; sbb dword [rcx], edx ; xchg eax, esp ; jmp qword [rcx-0x25] ;  (1 found)
0xffffffff813c2aab: adc byte [rdi], cl ; xchg eax, esp ; ret  ;  (2 found)
0xffffffff813e516a: adc byte [rdi], cl ; xchg eax, esp ; retn 0xB60F ;  (1 found)
0xffffffff8120f908: adc byte [rdi], cl ; xchg eax, esp ; retn 0xC031 ;  (1 found)
0xffffffff8106ef57: adc byte [rdi], cl ; xchg eax, esp ; retn 0xD284 ;  (35 found)
0xffffffff8118f0d2: adc byte [rdi], cl ; xchg eax, esp ; rol byte [rax+rax*8-0x6F0CB18B], 0xFFFFFFEB ; retn 0x90F3 ;  (1 found)
0xffffffff8152ad38: adc byte [rdi], cl ; xchg eax, esp ; rol dword [rbx+0x0F051C7A], 0xFFFFFF95 ; retn 0xD138 ;  (5 found)
0xffffffff8120f907: adc byte [rdi], r9L ; xchg eax, esp ; retn 0xC031 ;  (1 found)
0xffffffff81d68f00: adc byte [rdx+rdx*8-0x057FEF8C], al ; sub al, 0x0F ; xchg eax, esp ; retn 0xFF48 ;  (1 found)
0xffffffff816bceca: adc ch, ah ; xchg eax, esp ; dec dword [rax-0x77] ; ret  ;  (1 found)
0xffffffff816d17f9: adc dl, byte [rdi+rdi*8+0x7F941275] ; mov word [rsi], ss ; xchg eax, esp ; call qword [rcx-0x25] ;  (1 found)
0xffffffff81633cf9: adc dword [rbp+0x00], ebp ; add ecx, dword [rdi] ; xchg eax, esp ; retn 0xB60F ;  (1 found)
0xffffffff81646061: adc dword [rdi], ecx ; xchg eax, esp ; retn 0x3145 ;  (1 found)
0xffffffff81217d8a: adc eax, 0x0F0FFFF0 ; xchg eax, esp ; retn 0xD284 ;  (1 found)
0xffffffff813c2c4b: adc ebx, dword [rbx+0x0F] ; xchg eax, esp ; retn 0xC283 ;  (1 found)
0xffffffff8162322d: add al, 0x00 ; add byte [rcx+0x0F], al ; xchg eax, esp ; retn 0x8945 ;  (1 found)
0xffffffff813c92ed: add al, 0x0F ; xchg eax, esp ; retn 0x093C ;  (1 found)
0xffffffff81469c0d: add al, 0x0F ; xchg eax, esp ; retn 0x8389 ;  (1 found)
0xffffffff81065350: add al, 0x0F ; xchg eax, esp ; retn 0xC031 ;  (2 found)
0xffffffff8136de05: add al, 0x0F ; xchg eax, esp ; retn 0xD009 ;  (1 found)
0xffffffff812121fd: add al, 0x0F ; xchg eax, esp ; retn 0xD284 ;  (17 found)
0xffffffff813a0646: add al, byte [rax] ; add byte [rdi], cl ; xchg eax, esp ; retn 0x01BE ;  (1 found)
0xffffffff81228407: add al, byte [rax] ; add byte [rdi], cl ; xchg eax, esp ; retn 0xD284 ;  (2 found)
0xffffffff8155cf7d: add al, ch ; std  ; xchg eax, esp ; retn 0x48FF ;  (1 found)
0xffffffff81067f86: add al, ch ; xchg eax, esp ; ret  ;  (3 found)
0xffffffff811f9306: add al, ch ; xchg eax, esp ; retn 0xFFE7 ;  (1 found)
0xffffffff81483aea: add al, dh ; add cl, byte [r15] ; xchg eax, esp ; retn 0xC283 ;  (1 found)
0xffffffff8106534a: add byte [0xFFFFFFFF80F65351], 0x00000048 ; add al, 0x0F ; xchg eax, esp ; retn 0xC031 ;  (1 found)
0xffffffff8166a01a: add byte [r15], r9L ; xchg eax, esp ; retn 0x008B ;  (1 found)
0xffffffff8107b521: add byte [r15], r9L ; xchg eax, esp ; retn 0xD284 ;  (2 found)
0xffffffff811ec1da: add byte [r15], r9L ; xchg eax, esp ; rol byte [rax+rax*8-0x76B3648C], 0xFFFFFFEF ; call qword [r13+0x10] ;  (1 found)
0xffffffff81524339: add byte [rax+0x39], cl ; ror byte [rdi], 1  ; xchg eax, esp ; retn 0xB60F ;  (6 found)
0xffffffff81529947: add byte [rax+0x39], cl ; ror dword [rdi], 1  ; xchg eax, esp ; retn 0xB60F ;  (1 found)
0xffffffff81370812: add byte [rax-0x77], cl ; fisttp word [rdi] ; xchg eax, esp ; retn 0xE083 ;  (1 found)
0xffffffff81000082: add byte [rax-0x77], cl ; xchg eax, esp ; ret  ;  (2 found)
0xffffffff810066f7: add byte [rax-0x7B], cl ; fisttp dword [rdi] ; xchg eax, esp ; retn 0x2144 ;  (1 found)
0xffffffff81441b41: add byte [rax-0x7B], cl ; fisttp dword [rdi] ; xchg eax, esp ; retn 0xD284 ;  (1 found)
0xffffffff81101b7f: add byte [rax-0x7B], cl ; ror byte [rdi], cl ; xchg eax, esp ; retn 0x8349 ;  (1 found)
0xffffffff81506183: add byte [rax], 0x00000000 ; add byte [rdi], cl ; xchg eax, esp ; retn 0x8944 ;  (1 found)
0xffffffff815e3293: add byte [rax], 0x00000000 ; add byte [rdi], cl ; xchg eax, esp ; retn 0xD284 ;  (1 found)
0xffffffff81067f84: add byte [rax], al ; add al, ch ; xchg eax, esp ; ret  ;  (3 found)
0xffffffff81afe425: add byte [rax], al ; add byte [rbx], ch ; xchg eax, esp ; retn 0x0088 ;  (1 found)
0xffffffff813247a8: add byte [rax], al ; add byte [rcx+0x0F], al ; xchg eax, esp ; ret  ;  (1 found)
0xffffffff810a2753: add byte [rax], al ; add byte [rdi], cl ; xchg eax, esp ; ret  ;  (3 found)
0xffffffff8122266d: add byte [rax], al ; add byte [rdi], cl ; xchg eax, esp ; retn 0x0975 ;  (1 found)
0xffffffff81166f5b: add byte [rax], al ; add byte [rdi], cl ; xchg eax, esp ; retn 0x45C7 ;  (2 found)
0xffffffff81410cbd: add byte [rax], al ; add byte [rdi], cl ; xchg eax, esp ; retn 0x8041 ;  (1 found)
0xffffffff8132eb04: add byte [rax], al ; add byte [rdi], cl ; xchg eax, esp ; retn 0x8548 ;  (1 found)
0xffffffff81506184: add byte [rax], al ; add byte [rdi], cl ; xchg eax, esp ; retn 0x8944 ;  (1 found)
0xffffffff8141c457: add byte [rax], al ; add byte [rdi], cl ; xchg eax, esp ; retn 0xB4BF ;  (1 found)
0xffffffff81573bb9: add byte [rax], al ; add byte [rdi], cl ; xchg eax, esp ; retn 0xB60F ;  (1 found)
0xffffffff8146c925: add byte [rax], al ; add byte [rdi], cl ; xchg eax, esp ; retn 0xC7EB ;  (1 found)
0xffffffff8162aa2c: add byte [rax], al ; add byte [rdi], cl ; xchg eax, esp ; retn 0xD201 ;  (1 found)
0xffffffff8108d9a2: add byte [rax], al ; add byte [rdi], cl ; xchg eax, esp ; retn 0xD284 ;  (6 found)
0xffffffff8131494e: add byte [rax], al ; add dword [rdi], ecx ; xchg eax, esp ; retn 0x8948 ;  (1 found)
0xffffffff810c5106: add byte [rax], al ; add dword [rdi], ecx ; xchg eax, esp ; retn 0xD284 ;  (1 found)
0xffffffff814edb5a: add byte [rax], al ; add ecx, dword [rdi] ; xchg eax, esp ; retn 0x20A8 ;  (1 found)
0xffffffff8167bb28: add byte [rax], al ; and byte [rdi], cl ; xchg eax, esp ; retn 0x748D ;  (1 found)
0xffffffff816c42ad: add byte [rax], dl ; add byte [rdi], cl ; xchg eax, esp ; retn 0xD284 ;  (1 found)
0xffffffff81080ebd: add byte [rbx], 0x00000000 ; add byte [rdi], cl ; xchg eax, esp ; retn 0xD284 ;  (1 found)
0xffffffff81afe427: add byte [rbx], ch ; xchg eax, esp ; retn 0x0088 ;  (1 found)
0xffffffff81524307: add byte [rcx+0x001800FA], al ; add byte [rdi], cl ; xchg eax, esp ; retn 0xB60F ;  (6 found)
0xffffffff813247aa: add byte [rcx+0x0F], al ; xchg eax, esp ; ret  ;  (1 found)
0xffffffff8162322f: add byte [rcx+0x0F], al ; xchg eax, esp ; retn 0x8945 ;  (1 found)
0xffffffff815436ba: add byte [rcx+0x39], al ; ror dword [rdi], 1  ; xchg eax, esp ; retn 0xB60F ;  (1 found)
0xffffffff812f4874: add byte [rcx], dh ; rol byte [rbx+0x0F5501FE], cl ; xchg eax, esp ; retn 0x8948 ;  (1 found)
0xffffffff810a2755: add byte [rdi], cl ; xchg eax, esp ; ret  ;  (4 found)
0xffffffff8166a01b: add byte [rdi], cl ; xchg eax, esp ; retn 0x008B ;  (1 found)
0xffffffff813a0648: add byte [rdi], cl ; xchg eax, esp ; retn 0x01BE ;  (2 found)
0xffffffff8122266f: add byte [rdi], cl ; xchg eax, esp ; retn 0x0975 ;  (1 found)
0xffffffff814978ea: add byte [rdi], cl ; xchg eax, esp ; retn 0x0B74 ;  (1 found)
0xffffffff81529932: add byte [rdi], cl ; xchg eax, esp ; retn 0x394C ;  (1 found)
0xffffffff81166f5d: add byte [rdi], cl ; xchg eax, esp ; retn 0x45C7 ;  (2 found)
0xffffffff8167c3f0: add byte [rdi], cl ; xchg eax, esp ; retn 0x748D ;  (1 found)
0xffffffff81410cbf: add byte [rdi], cl ; xchg eax, esp ; retn 0x8041 ;  (1 found)
0xffffffff81498c49: add byte [rdi], cl ; xchg eax, esp ; retn 0x850F ;  (1 found)
0xffffffff8132eb06: add byte [rdi], cl ; xchg eax, esp ; retn 0x8548 ;  (1 found)
0xffffffff81506186: add byte [rdi], cl ; xchg eax, esp ; retn 0x8944 ;  (1 found)
0xffffffff8141c459: add byte [rdi], cl ; xchg eax, esp ; retn 0xB4BF ;  (1 found)
0xffffffff8152430d: add byte [rdi], cl ; xchg eax, esp ; retn 0xB60F ;  (7 found)
0xffffffff8167b433: add byte [rdi], cl ; xchg eax, esp ; retn 0xC031 ;  (3 found)
0xffffffff8146c927: add byte [rdi], cl ; xchg eax, esp ; retn 0xC7EB ;  (1 found)
0xffffffff811a7f18: add byte [rdi], cl ; xchg eax, esp ; retn 0xD001 ;  (1 found)
0xffffffff8162aa2e: add byte [rdi], cl ; xchg eax, esp ; retn 0xD201 ;  (1 found)
0xffffffff8107b522: add byte [rdi], cl ; xchg eax, esp ; retn 0xD284 ;  (15 found)
0xffffffff81236a5c: add byte [rdi], cl ; xchg eax, esp ; retn 0xEBE8 ;  (1 found)
0xffffffff8131e7b9: add byte [rdi], cl ; xchg eax, esp ; rol byte [rax+rax*8+0x5D5B0775], 0xFFFFFFF3 ; ret  ;  (1 found)
0xffffffff81121165: add byte [rdi], cl ; xchg eax, esp ; rol byte [rax+rax*8-0x3FCEF48B], 0x0000005D ; ret  ;  (1 found)
0xffffffff811ec1db: add byte [rdi], cl ; xchg eax, esp ; rol byte [rax+rax*8-0x76B3648C], 0xFFFFFFEF ; call qword [r13+0x10] ;  (1 found)
0xffffffff814a6e00: add byte [rdi], cl ; xchg eax, esp ; rol byte [rcx+0x0F], 0xFFFFFF95 ; retn 0xB60F ;  (1 found)
0xffffffff810d4ca4: add byte [rsp+rcx+0x31], dh ; rol byte [rbx+0x0F070478], cl ; xchg eax, esp ; retn 0x0141 ;  (1 found)
0xffffffff81483aeb: add cl, byte [r15] ; xchg eax, esp ; retn 0xC283 ;  (2 found)
0xffffffff81074684: add cl, byte [rax-0x77] ; fimul word [rdi] ; xchg eax, esp ; retn 0x8941 ;  (1 found)
0xffffffff8163c686: add cl, byte [rdi] ; xchg eax, esp ; retn 0xB60F ;  (1 found)
0xffffffff81483aed: add cl, byte [rdi] ; xchg eax, esp ; retn 0xC283 ;  (2 found)
0xffffffff8166c752: add cl, byte [rdi] ; xchg eax, esp ; retn 0xD284 ;  (2 found)
0xffffffff811e2f32: add cl, byte [rdi] ; xchg eax, esp ; retn 0xE2C1 ;  (1 found)
0xffffffff81051075: add cl, byte [rdi] ; xchg eax, esp ; rol byte [rcx], 0xFFFFFFC0 ; ret  ;  (1 found)
0xffffffff812df9b3: add dword [rax-0x75], ecx ; xchg eax, esp ; ret  ;  (1 found)
0xffffffff81000080: add dword [rax], eax ; add byte [rax-0x77], cl ; xchg eax, esp ; ret  ;  (2 found)
0xffffffff8167c3ee: add dword [rax], eax ; add byte [rdi], cl ; xchg eax, esp ; retn 0x748D ;  (1 found)
0xffffffff8167b431: add dword [rax], eax ; add byte [rdi], cl ; xchg eax, esp ; retn 0xC031 ;  (2 found)
0xffffffff81672533: add dword [rax], eax ; add byte [rdi], cl ; xchg eax, esp ; retn 0xD284 ;  (2 found)
0xffffffff812f4879: add dword [rbp+0x0F], edx ; xchg eax, esp ; retn 0x8948 ;  (1 found)
0xffffffff810459c5: add dword [rbx+0x0F01287A], eax ; xchg eax, esp ; retn 0xC141 ;  (1 found)
0xffffffff812d0af3: add dword [rcx], edi ; ror dword [rdi], 1  ; xchg eax, esp ; retn 0x6349 ;  (1 found)
0xffffffff814b49b8: add dword [rdi], ecx ; xchg eax, esp ; ret  ;  (3 found)
0xffffffff814bcfb0: add dword [rdi], ecx ; xchg eax, esp ; retn 0x0E74 ;  (1 found)
0xffffffff810c8556: add dword [rdi], ecx ; xchg eax, esp ; retn 0x14FF ;  (1 found)
0xffffffff81139fc4: add dword [rdi], ecx ; xchg eax, esp ; retn 0x3145 ;  (2 found)
0xffffffff815a2406: add dword [rdi], ecx ; xchg eax, esp ; retn 0x8041 ;  (1 found)
0xffffffff81314950: add dword [rdi], ecx ; xchg eax, esp ; retn 0x8948 ;  (1 found)
0xffffffff814baa68: add dword [rdi], ecx ; xchg eax, esp ; retn 0x894C ;  (1 found)
0xffffffff8165eb52: add dword [rdi], ecx ; xchg eax, esp ; retn 0xB60F ;  (1 found)
0xffffffff8135c393: add dword [rdi], ecx ; xchg eax, esp ; retn 0xC031 ;  (2 found)
0xffffffff810459c9: add dword [rdi], ecx ; xchg eax, esp ; retn 0xC141 ;  (1 found)
0xffffffff814cae86: add dword [rdi], ecx ; xchg eax, esp ; retn 0xD021 ;  (1 found)
0xffffffff810a5ace: add dword [rdi], ecx ; xchg eax, esp ; retn 0xD284 ;  (51 found)
0xffffffff81516a14: add dword [rdi], ecx ; xchg eax, esp ; retn 0xEEC1 ;  (1 found)
0xffffffff810e70a2: add dword [rdi], ecx ; xchg eax, esp ; rol byte [rax+rax*8+0x5D5B0675], 0xFFFFFFF3 ; ret  ;  (1 found)
0xffffffff8131494d: add eax, 0x0F010000 ; xchg eax, esp ; retn 0x8948 ;  (1 found)
0xffffffff811bef0e: add eax, 0x78814800 ; or byte [rax+0x0F81822D], ah ; xchg eax, esp ; retn 0x895B ;  (1 found)
0xffffffff8106534b: add eax, 0xFFF00000 ; add al, 0x0F ; xchg eax, esp ; retn 0xC031 ;  (1 found)
0xffffffff81080ebe: add eax, dword [rax] ; add byte [rdi], cl ; xchg eax, esp ; retn 0xD284 ;  (1 found)
0xffffffff81528914: add eax, dword [rcx+0x0F] ; xchg eax, esp ; rol dword [rbx+0x0F40787F], 0xFFFFFF94 ; retn 0x3841 ;  (1 found)
0xffffffff815249fd: add ecx, dword [rax+0x39] ; or byte [r15], cl ; xchg eax, esp ; retn 0x73E9 ;  (1 found)
0xffffffff814edb5c: add ecx, dword [rdi] ; xchg eax, esp ; retn 0x20A8 ;  (1 found)
0xffffffff8161b6fd: add ecx, dword [rdi] ; xchg eax, esp ; retn 0xB60F ;  (2 found)
0xffffffff813dc867: add ecx, dword [rdi] ; xchg eax, esp ; retn 0xD021 ;  (1 found)
0xffffffff814b73d6: add ecx, dword [rdi] ; xchg eax, esp ; retn 0xD089 ;  (1 found)
0xffffffff811829ff: and al, 0x08 ; or dword [rdi], ecx ; xchg eax, esp ; retn 0x148D ;  (1 found)
0xffffffff8108f891: and al, 0x0F ; xchg eax, esp ; retn 0xD284 ;  (8 found)
0xffffffff812ee9a5: and al, 0x30 ; add dword [rdi], ecx ; xchg eax, esp ; retn 0xD284 ;  (1 found)
0xffffffff814accb0: and al, 0x38 ; or al, 0x0F ; xchg eax, esp ; retn 0xB60F ;  (1 found)
0xffffffff813b756a: and byte [r15], cl ; xchg eax, esp ; retn 0xE083 ;  (1 found)
0xffffffff8165284b: and byte [r15], r9L ; xchg eax, esp ; retn 0xD284 ;  (1 found)
0xffffffff814978e8: and byte [rax], al ; add byte [rdi], cl ; xchg eax, esp ; retn 0x0B74 ;  (1 found)
0xffffffff81498c47: and byte [rax], al ; add byte [rdi], cl ; xchg eax, esp ; retn 0x850F ;  (1 found)
0xffffffff816d15f8: and byte [rbx], cl ; xchg eax, esp ; call qword [rax] ;  (4 found)
0xffffffff816b054c: and byte [rdi], cl ; xchg eax, esp ; retn 0x548D ;  (1 found)
0xffffffff8167bb2a: and byte [rdi], cl ; xchg eax, esp ; retn 0x748D ;  (1 found)
0xffffffff8165284c: and byte [rdi], cl ; xchg eax, esp ; retn 0xD284 ;  (1 found)
0xffffffff813b756b: and byte [rdi], cl ; xchg eax, esp ; retn 0xE083 ;  (1 found)
0xffffffff813b7564: and dword [rbp-0x75EF8740], eax ; and byte [r15], cl ; xchg eax, esp ; retn 0xE083 ;  (1 found)
0xffffffff816d1618: and ecx, dword [rbx] ; xchg eax, esp ; call qword [rbx] ;  (3 found)
0xffffffff816d1630: and ecx, dword [rbx] ; xchg eax, esp ; call qword [rsi] ;  (1 found)
0xffffffff814bcfaf: clc  ; add dword [rdi], ecx ; xchg eax, esp ; retn 0x0E74 ;  (1 found)
0xffffffff810c8555: clc  ; add dword [rdi], ecx ; xchg eax, esp ; retn 0x14FF ;  (1 found)
0xffffffff81516a13: clc  ; add dword [rdi], ecx ; xchg eax, esp ; retn 0xEEC1 ;  (1 found)
0xffffffff814b73d5: clc  ; add ecx, dword [rdi] ; xchg eax, esp ; retn 0xD089 ;  (1 found)
0xffffffff810f9d79: clc  ; or byte [rdi], cl ; xchg eax, esp ; retn 0xCDE8 ;  (1 found)
0xffffffff81185549: clc  ; or cl, byte [rdi] ; xchg eax, esp ; retn 0x5DE8 ;  (1 found)
0xffffffff814f5425: cld  ; add dword [rdi], ecx ; xchg eax, esp ; retn 0xD284 ;  (1 found)
0xffffffff8136de04: cli  ; add al, 0x0F ; xchg eax, esp ; retn 0xD009 ;  (1 found)
0xffffffff8163c685: cli  ; add cl, byte [rdi] ; xchg eax, esp ; retn 0xB60F ;  (1 found)
0xffffffff8166c751: cli  ; add cl, byte [rdi] ; xchg eax, esp ; retn 0xD284 ;  (2 found)
0xffffffff8165eb51: cli  ; add dword [rdi], ecx ; xchg eax, esp ; retn 0xB60F ;  (1 found)
0xffffffff814cae85: cli  ; add dword [rdi], ecx ; xchg eax, esp ; retn 0xD021 ;  (1 found)
0xffffffff816113a3: cli  ; mov dword [rdi], ecx ; xchg eax, esp ; retn 0xE083 ;  (1 found)
0xffffffff814c19d0: cli  ; or byte [rdi], cl ; xchg eax, esp ; retn 0xD138 ;  (1 found)
0xffffffff81d68f06: cli  ; sub al, 0x0F ; xchg eax, esp ; retn 0xFF48 ;  (1 found)
0xffffffff8106608c: cli  ; sub eax, 0x0FC08500 ; xchg eax, esp ; retn 0xD284 ;  (2 found)
0xffffffff8150617f: cmovno eax, dword [rcx+0x000080E7] ; add byte [rdi], cl ; xchg eax, esp ; retn 0x8944 ;  (1 found)
0xffffffff8167022e: cmp byte [r15], cl ; xchg eax, esp ; retn 0xD284 ;  (1 found)
0xffffffff814accb1: cmp byte [rdi+rcx], cl ; xchg eax, esp ; retn 0xB60F ;  (1 found)
0xffffffff8166ff52: cmp byte [rdi], cl ; xchg eax, esp ; retn 0xD284 ;  (3 found)
0xffffffff812f4872: cmp dword [0xFFFFFFFF0501797C], 0x0F5501FE ; xchg eax, esp ; retn 0x8948 ;  (1 found)
0xffffffff81633cf7: cmp eax, 0x006D1197 ; add ecx, dword [rdi] ; xchg eax, esp ; retn 0xB60F ;  (1 found)
0xffffffff81046860: cmp eax, 0x00CB649F ; rcl byte [rdx+rax*8-0x7F], 0x0000000F ; xchg eax, esp ; ret  ;  (1 found)
0xffffffff81500a29: cmp eax, 0x0F411000 ; xchg eax, esp ; retn 0x8D47 ;  (1 found)
0xffffffff81d7836d: cmp eax, 0xFFF590AD ; add byte [rdi], cl ; xchg eax, esp ; retn 0xC031 ;  (1 found)
0xffffffff813c2aa7: cmp ecx, dword [rcx+rdi+0x60] ; adc byte [rdi], cl ; xchg eax, esp ; ret  ;  (1 found)
0xffffffff819122ab: cmp edi, 0x20FFFFFF ; xchg eax, esp ; ret  ;  (2 found)
0xffffffff819122b3: cmp edi, 0x60FFFFFF ; xchg eax, esp ; ret  ;  (1 found)
0xffffffff819122bb: cmp edi, 0x68FFFFFF ; xchg eax, esp ; ret  ;  (1 found)
0xffffffff819122c3: cmp edi, 0x80FFFFFF ; xchg eax, esp ; ret  ;  (2 found)
0xffffffff818a20ab: cmp edi, 0xB0FFFFFF ; xchg eax, esp ; add eax, 0xFFFFFF81 ; call qword [rax-0x6B] ;  (2 found)
0xffffffff818c1b0b: cmp edi, 0xF4FFFFFF ; xchg eax, esp ; cmp eax, 0xFFFFFF81 ; call qword [rdi] ;  (1 found)
0xffffffff81e05a3b: cmp edi, 0xF4FFFFFF ; xchg eax, esp ; cmp eax, 0xFFFFFF81 ; jmp qword [0xFFFF813D+rdx*4] ;  (1 found)
0xffffffff8152df2a: dec dword [rcx-0x0000E773] ; dec dword [rdi] ; xchg eax, esp ; retn 0xE083 ;  (1 found)
0xffffffff810d05bb: dec dword [rdi] ; xchg eax, esp ; ret  ;  (1 found)
0xffffffff811dc22e: dec dword [rdi] ; xchg eax, esp ; retn 0x752B ;  (1 found)
0xffffffff810cb3a0: dec dword [rdi] ; xchg eax, esp ; retn 0x8948 ;  (1 found)
0xffffffff81d263dd: dec dword [rdi] ; xchg eax, esp ; retn 0xC031 ;  (1 found)
0xffffffff815837fa: dec dword [rdi] ; xchg eax, esp ; retn 0xD1FF ;  (1 found)
0xffffffff812b36fa: dec dword [rdi] ; xchg eax, esp ; retn 0xD284 ;  (2 found)
0xffffffff8152df30: dec dword [rdi] ; xchg eax, esp ; retn 0xE083 ;  (1 found)
0xffffffff81644083: dec dword [rdi] ; xchg eax, esp ; retn 0xFE83 ;  (2 found)
0xffffffff81212424: fcom dword [rax-0x000F0001] ; add al, 0x0F ; xchg eax, esp ; retn 0xD284 ;  (1 found)
0xffffffff81d76596: ficom dword [rbx] ; xchg eax, esp ; call qword [rbp+0x48] ;  (1 found)
0xffffffff810cd710: fild dword [rcx+0x0F] ; xchg eax, esp ; retn 0x4974 ;  (2 found)
0xffffffff81074687: fimul word [rdi] ; xchg eax, esp ; retn 0x8941 ;  (1 found)
0xffffffff810066fa: fisttp dword [rdi] ; xchg eax, esp ; retn 0x2144 ;  (1 found)
0xffffffff81644436: fisttp dword [rdi] ; xchg eax, esp ; retn 0x5089 ;  (1 found)
0xffffffff81441b44: fisttp dword [rdi] ; xchg eax, esp ; retn 0xD284 ;  (1 found)
0xffffffff812bfdce: fisttp word [rdi] ; xchg eax, esp ; retn 0x19E8 ;  (1 found)
0xffffffff8144d45c: fisttp word [rdi] ; xchg eax, esp ; retn 0x2BE8 ;  (1 found)
0xffffffff8157879c: fisttp word [rdi] ; xchg eax, esp ; retn 0xB60F ;  (1 found)
0xffffffff812b942e: fisttp word [rdi] ; xchg eax, esp ; retn 0xB9E8 ;  (1 found)
0xffffffff816a1c49: fisttp word [rdi] ; xchg eax, esp ; retn 0xC748 ;  (1 found)
0xffffffff8144d4bc: fisttp word [rdi] ; xchg eax, esp ; retn 0xCBE8 ;  (1 found)
0xffffffff81d734e7: fisttp word [rdi] ; xchg eax, esp ; retn 0xCE83 ;  (1 found)
0xffffffff81370815: fisttp word [rdi] ; xchg eax, esp ; retn 0xE083 ;  (1 found)
0xffffffff81435b93: fmul dword [r15] ; xchg eax, esp ; ret  ;  (2 found)
0xffffffff81435b95: fmul dword [rdi] ; xchg eax, esp ; ret  ;  (1 found)
0xffffffff816d1de0: fst dword [rdx+rbx*4-0x01] ; xchg eax, esp ; fcos  ; jmp rdx ;  (1 found)
0xffffffff812f7f68: fsub qword [rbx+0x0FC08581] ; xchg eax, esp ; retn 0xC031 ;  (1 found)
0xffffffff8168dcb6: fucomip st0, st0 ; xchg eax, esp ; cmp esi, esp ; jmp qword [rsi-0x7B] ;  (1 found)
0xffffffff818c1b10: hlt  ; xchg eax, esp ; cmp eax, 0xFFFFFF81 ; call qword [rdi] ;  (1 found)
0xffffffff81e05a40: hlt  ; xchg eax, esp ; cmp eax, 0xFFFFFF81 ; jmp qword [0xFFFF813D+rdx*4] ;  (1 found)
0xffffffff812087d3: imul esp, dword [rbx], 0xFFF0000B ; adc byte [r15], cl ; xchg eax, esp ; retn 0xD284 ;  (1 found)
0xffffffff8141fe30: in al, 0x0F ; xchg eax, esp ; retn 0x8944 ;  (1 found)
0xffffffff812d2389: in al, 0x0F ; xchg eax, esp ; retn 0xC031 ;  (1 found)
0xffffffff8131d025: in al, 0x0F ; xchg eax, esp ; retn 0xDAF7 ;  (1 found)
0xffffffff816bcecb: in al, dx ; xchg eax, esp ; dec dword [rax-0x77] ; ret  ;  (1 found)
0xffffffff81601460: in eax, 0x0F ; xchg eax, esp ; retn 0x8548 ;  (1 found)
0xffffffff812457ef: inc dword [rbp+0x0FC189C0] ; xchg eax, esp ; ret  ;  (1 found)
0xffffffff812d2386: inc dword [rbp-0x7B] ; in al, 0x0F ; xchg eax, esp ; retn 0xC031 ;  (1 found)
0xffffffff81526387: inc dword [rcx+0x0F] ; xchg eax, esp ; retn 0x7D83 ;  (1 found)
0xffffffff813dc601: inc dword [rcx+0x0F] ; xchg eax, esp ; retn 0x8D4C ;  (1 found)
0xffffffff81d73289: int 0x50 ; xchg eax, esp ; dec dword [rax-0x7D] ; ret  ;  (1 found)
0xffffffff81d76591: lodsb  ; xor dword [rcx], 0x13DAE8C0 ; xchg eax, esp ; call qword [rbp+0x48] ;  (1 found)
0xffffffff81236a5b: lodsd  ; add byte [rdi], cl ; xchg eax, esp ; retn 0xEBE8 ;  (1 found)
0xffffffff816d1778: mov al, 0x0E ; xchg eax, esp ; jmp qword [rax-0x2E806BF2] ;  (1 found)
0xffffffff813d362f: mov al, 0x0F ; xchg eax, esp ; retn 0xF883 ;  (2 found)
0xffffffff8141bdd6: mov al, byte [0x004B34FD8141D231] ; add byte [rdi], cl ; xchg eax, esp ; retn 0x01BE ;  (1 found)
0xffffffff810e22d5: mov byte [0x48FFF01046FF41F0], al ; adc byte [rdi], cl ; xchg eax, esp ; retn 0xD284 ;  (1 found)
0xffffffff81080ebc: mov byte [rax+0x0F000003], al ; xchg eax, esp ; retn 0xD284 ;  (1 found)
0xffffffff81672531: mov byte [rcx+rax+0x00], dl ; add byte [rdi], cl ; xchg eax, esp ; retn 0xD284 ;  (1 found)
0xffffffff815b55f2: mov dh, 0x45 ; ror byte [rdi], cl ; xchg eax, esp ; retn 0xE2C1 ;  (1 found)
0xffffffff8159b945: mov dh, 0x47 ; sbb ecx, dword [rdi] ; xchg eax, esp ; retn 0xE083 ;  (1 found)
0xffffffff8163c67f: mov dword [0x0F02FA8366000000], eax ; xchg eax, esp ; retn 0xB60F ;  (1 found)
0xffffffff81d7658e: mov dword [rax+0x3181AC5D], 0x13DAE8C0 ; xchg eax, esp ; call qword [rbp+0x48] ;  (1 found)
0xffffffff81447c52: mov dword [rax], 0xE881C3A5 ; xchg eax, esp ; retn 0x48FF ;  (1 found)
0xffffffff816113a4: mov dword [rdi], ecx ; xchg eax, esp ; retn 0xE083 ;  (1 found)
0xffffffff813247a5: mov ebp, 0x0000008C ; add byte [rcx+0x0F], al ; xchg eax, esp ; ret  ;  (1 found)
0xffffffff81afe422: mov ebx, 0x00000065 ; add byte [rbx], ch ; xchg eax, esp ; retn 0x0088 ;  (1 found)
0xffffffff8146c922: mov ebx, 0x000001B8 ; add byte [rdi], cl ; xchg eax, esp ; retn 0xC7EB ;  (1 found)
0xffffffff8167bb25: mov edi, 0x000001C4 ; and byte [rdi], cl ; xchg eax, esp ; retn 0x748D ;  (1 found)
0xffffffff8131494b: mov edi, 0x000005A5 ; add dword [rdi], ecx ; xchg eax, esp ; retn 0x8948 ;  (1 found)
0xffffffff814edb57: mov edx, 0x0000025E ; add ecx, dword [rdi] ; xchg eax, esp ; retn 0x20A8 ;  (1 found)
0xffffffff816d18c9: mov edx, 0xBA54FF94 ; xchg eax, esp ; call qword [rbx+0x73FF94BA] ;  (1 found)
0xffffffff816d18d9: mov edx, 0xBA91FF94 ; xchg eax, esp ; call rsi ;  (1 found)
0xffffffff8167b42f: mov edx, dword [rcx+rax+0x00] ; add byte [rdi], cl ; xchg eax, esp ; retn 0xC031 ;  (2 found)
0xffffffff816d1800: mov word [rsi], ss ; xchg eax, esp ; call qword [rcx-0x25] ;  (1 found)
0xffffffff8131494c: movsd  ; add eax, 0x0F010000 ; xchg eax, esp ; retn 0x8948 ;  (1 found)
0xffffffff814accb2: or al, 0x0F ; xchg eax, esp ; retn 0xB60F ;  (1 found)
0xffffffff810d4ca6: or al, 0x31 ; rol byte [rbx+0x0F070478], cl ; xchg eax, esp ; retn 0x0141 ;  (1 found)
0xffffffff813d362d: or al, 0x89 ; mov al, 0x0F ; xchg eax, esp ; retn 0xF883 ;  (1 found)
0xffffffff81524a00: or byte [r15], cl ; xchg eax, esp ; retn 0x73E9 ;  (1 found)
0xffffffff81641029: or byte [r15], r9L ; xchg eax, esp ; retn 0xD284 ;  (2 found)
0xffffffff811bef13: or byte [rax+0x0F81822D], ah ; xchg eax, esp ; retn 0x895B ;  (1 found)
0xffffffff8152a412: or byte [rcx+0x0F], al ; xchg eax, esp ; retn 0x8341 ;  (1 found)
0xffffffff8150085d: or byte [rdi], cl ; xchg eax, esp ; retn 0x0F41 ;  (1 found)
0xffffffff81259e63: or byte [rdi], cl ; xchg eax, esp ; retn 0x3948 ;  (1 found)
0xffffffff810dc670: or byte [rdi], cl ; xchg eax, esp ; retn 0x415B ;  (1 found)
0xffffffff81524a01: or byte [rdi], cl ; xchg eax, esp ; retn 0x73E9 ;  (1 found)
0xffffffff813692a8: or byte [rdi], cl ; xchg eax, esp ; retn 0x8348 ;  (1 found)
0xffffffff81057b7b: or byte [rdi], cl ; xchg eax, esp ; retn 0x8349 ;  (1 found)
0xffffffff811c033e: or byte [rdi], cl ; xchg eax, esp ; retn 0x894C ;  (1 found)
0xffffffff810c14e9: or byte [rdi], cl ; xchg eax, esp ; retn 0xC085 ;  (1 found)
0xffffffff810f9d7a: or byte [rdi], cl ; xchg eax, esp ; retn 0xCDE8 ;  (1 found)
0xffffffff81107008: or byte [rdi], cl ; xchg eax, esp ; retn 0xD001 ;  (1 found)
0xffffffff814c19d1: or byte [rdi], cl ; xchg eax, esp ; retn 0xD138 ;  (1 found)
0xffffffff8108d97b: or byte [rdi], cl ; xchg eax, esp ; retn 0xD284 ;  (14 found)
0xffffffff810ef75e: or byte [rdi], cl ; xchg eax, esp ; retn 0xD285 ;  (1 found)
0xffffffff812707d8: or byte [rdi], cl ; xchg eax, esp ; retn 0xFFF0 ;  (1 found)
0xffffffff8118554a: or cl, byte [rdi] ; xchg eax, esp ; retn 0x5DE8 ;  (1 found)
0xffffffff81469c05: or dword [rax-0x09], 0x7B8348F1 ; adc byte [rdi+rcx], al ; xchg eax, esp ; retn 0x8389 ;  (1 found)
0xffffffff81546469: or dword [rax-0x77], 0x0FA6F3DE ; xchg eax, esp ; retn 0x8B48 ;  (1 found)
0xffffffff810c5bf0: or dword [rdi], ecx ; xchg eax, esp ; ret  ;  (1 found)
0xffffffff81182a01: or dword [rdi], ecx ; xchg eax, esp ; retn 0x148D ;  (1 found)
0xffffffff813c9450: or dword [rdi], ecx ; xchg eax, esp ; retn 0xC984 ;  (1 found)
0xffffffff81435b8f: or eax, 0x407F8166 ; fmul dword [r15] ; xchg eax, esp ; ret  ;  (1 found)
0xffffffff813c9448: or eax, 0x940F043C ; sar dword [rcx+rcx], 0x0F ; xchg eax, esp ; retn 0xC984 ;  (2 found)
0xffffffff811bef0d: or eax, dword [0xFFFFFFFFF99D3713] ; or byte [rax+0x0F81822D], ah ; xchg eax, esp ; retn 0x895B ;  (1 found)
0xffffffff810f3185: or ecx, dword [rdi] ; xchg eax, esp ; retn 0xC031 ;  (1 found)
0xffffffff8108e282: or ecx, dword [rdi] ; xchg eax, esp ; retn 0xD284 ;  (18 found)
0xffffffff811ec40e: or ecx, dword [rdi] ; xchg eax, esp ; rol byte [rax+rax*8-0x76B73F8C], 0xFFFFFFDF ; call qword [rbx+0x10] ;  (1 found)
0xffffffff816d15f9: or edx, dword [rdi+rdi*8+0x7F940B10] ; and byte [rbx], cl ; xchg eax, esp ; call qword [rax] ;  (3 found)
0xffffffff816d1611: or edx, dword [rdi+rdi*8+0x7F940B10] ; and ecx, dword [rbx] ; xchg eax, esp ; call qword [rbx] ;  (1 found)
0xffffffff816d1619: or edx, dword [rdi+rdi*8+0x7F940B13] ; and ecx, dword [rbx] ; xchg eax, esp ; call qword [rbx] ;  (2 found)
0xffffffff816d1629: or edx, dword [rdi+rdi*8+0x7F940B13] ; and ecx, dword [rbx] ; xchg eax, esp ; call qword [rsi] ;  (1 found)
0xffffffff816d1679: or edx, dword [rdi+rdi*8+0x7F940B1A] ; xor ecx, dword [rbx] ; xchg eax, esp ; jmp qword [rsi] ;  (1 found)
0xffffffff816d1790: out 0x0E, al ; xchg eax, esp ; call rsi ;  (1 found)
0xffffffff81259e62: pop rbx ; or byte [rdi], cl ; xchg eax, esp ; retn 0x3948 ;  (1 found)
0xffffffff81107007: pop rcx ; or byte [rdi], cl ; xchg eax, esp ; retn 0xD001 ;  (1 found)
0xffffffff816d1570: pop rcx ; xchg eax, esp ; xchg eax, ebx ; jmp qword [rdi] ;  (1 found)
0xffffffff81217bcf: popfq  ; xchg eax, esp ; add byte [rbx+0x5D], bl ; ret  ;  (1 found)
0xffffffff812f05c5: push 0x00000030 ; add dword [rdi], ecx ; xchg eax, esp ; retn 0xD284 ;  (1 found)
0xffffffff811a7f15: push 0x0F000005 ; xchg eax, esp ; retn 0xD001 ;  (1 found)
0xffffffff81d2d521: push 0x0F564D58 ; xchg eax, esp ; retn 0xC0FF ;  (1 found)
0xffffffff81d7328a: push rax ; xchg eax, esp ; dec dword [rax-0x7D] ; ret  ;  (1 found)
0xffffffff813e5169: push rbx ; adc byte [rdi], cl ; xchg eax, esp ; retn 0xB60F ;  (1 found)
0xffffffff81224d52: push rcx ; sbb byte [rdi], cl ; xchg eax, esp ; retn 0xB60F ;  (1 found)
0xffffffff816d18c8: push rdi ; mov edx, 0xBA54FF94 ; xchg eax, esp ; call qword [rbx+0x73FF94BA] ;  (1 found)
0xffffffff818c1b0f: push rsp ; xchg eax, esp ; cmp eax, 0xFFFFFF81 ; call qword [rdi] ;  (1 found)
0xffffffff81e05a3f: push rsp ; xchg eax, esp ; cmp eax, 0xFFFFFF81 ; jmp qword [0xFFFF813D+rdx*4] ;  (1 found)
0xffffffff81046865: rcl byte [rdx+rax*8-0x7F], 0x0000000F ; xchg eax, esp ; ret  ;  (1 found)
0xffffffff815b55ed: rol byte [r13+0x45B60FC0], 1  ; ror byte [rdi], cl ; xchg eax, esp ; retn 0xE2C1 ;  (1 found)
0xffffffff8108d9a1: rol byte [rax], 0x00000000 ; add byte [rdi], cl ; xchg eax, esp ; retn 0xD284 ;  (5 found)
0xffffffff81112acd: rol byte [rbp+0x0F5441C9], cl ; xchg eax, esp ; retn 0x8941 ;  (1 found)
0xffffffff815b55ee: rol byte [rbp+0x45B60FC0], 1  ; ror byte [rdi], cl ; xchg eax, esp ; retn 0xE2C1 ;  (1 found)
0xffffffff810cb39d: rol byte [rbp-0x7B], cl ; dec dword [rdi] ; xchg eax, esp ; retn 0x8948 ;  (1 found)
0xffffffff8141fe2d: rol byte [rbp-0x7B], cl ; in al, 0x0F ; xchg eax, esp ; retn 0x8944 ;  (1 found)
0xffffffff8131d022: rol byte [rbp-0x7B], cl ; in al, 0x0F ; xchg eax, esp ; retn 0xDAF7 ;  (1 found)
0xffffffff814cae7f: rol byte [rbp-0x7FF78B37], 0xFFFFFFFA ; add dword [rdi], ecx ; xchg eax, esp ; retn 0xD021 ;  (1 found)
0xffffffff810d4ca8: rol byte [rbx+0x0F070478], cl ; xchg eax, esp ; retn 0x0141 ;  (1 found)
0xffffffff812f4876: rol byte [rbx+0x0F5501FE], cl ; xchg eax, esp ; retn 0x8948 ;  (1 found)
0xffffffff812707d4: rol byte [rbx+rdi+0x60], cl ; or byte [rdi], cl ; xchg eax, esp ; retn 0xFFF0 ;  (1 found)
0xffffffff81d6feb3: rol byte [rbx-0x6117E01E], 0xFFFFFF84 ; xchg eax, esp ; jmp qword [rsi+0x41] ;  (1 found)
0xffffffff813a0642: rol byte [rcx+0x000200F9], cl ; add byte [rdi], cl ; xchg eax, esp ; retn 0x01BE ;  (1 found)
0xffffffff8160145c: rol byte [rcx+0x0FE58948], 1  ; xchg eax, esp ; retn 0x8548 ;  (1 found)
0xffffffff8162ccbf: ror byte [r15], 1  ; xchg eax, esp ; retn 0x548D ;  (1 found)
0xffffffff815b55f3: ror byte [r15], cl ; xchg eax, esp ; retn 0xE2C1 ;  (1 found)
0xffffffff81578799: ror byte [rax-0x77], cl ; fisttp word [rdi] ; xchg eax, esp ; retn 0xB60F ;  (1 found)
0xffffffff815837f7: ror byte [rbp-0x7B], cl ; dec dword [rdi] ; xchg eax, esp ; retn 0xD1FF ;  (1 found)
0xffffffff81500859: ror byte [rbx+rdi+0x78], cl ; or byte [rdi], cl ; xchg eax, esp ; retn 0x0F41 ;  (1 found)
0xffffffff812eb4fe: ror byte [rcx+rdi-0x15], 0x0000000F ; xchg eax, esp ; retn 0xD021 ;  (1 found)
0xffffffff815b55f0: ror byte [rdi], 0xFFFFFFB6 ; ror byte [r15], cl ; xchg eax, esp ; retn 0xE2C1 ;  (1 found)
0xffffffff8162ccc0: ror byte [rdi], 1  ; xchg eax, esp ; retn 0x548D ;  (1 found)
0xffffffff812d4403: ror byte [rdi], 1  ; xchg eax, esp ; retn 0x8942 ;  (1 found)
0xffffffff810067da: ror byte [rdi], 1  ; xchg eax, esp ; retn 0x8948 ;  (1 found)
0xffffffff8152433c: ror byte [rdi], 1  ; xchg eax, esp ; retn 0xB60F ;  (6 found)
0xffffffff811285af: ror byte [rdi], cl ; xchg eax, esp ; retn 0x8348 ;  (1 found)
0xffffffff81101b82: ror byte [rdi], cl ; xchg eax, esp ; retn 0x8349 ;  (1 found)
0xffffffff8166c085: ror byte [rdi], cl ; xchg eax, esp ; retn 0x8545 ;  (2 found)
0xffffffff812528e5: ror byte [rdi], cl ; xchg eax, esp ; retn 0xB60F ;  (1 found)
0xffffffff815b55f4: ror byte [rdi], cl ; xchg eax, esp ; retn 0xE2C1 ;  (1 found)
0xffffffff8165adb8: ror byte [rdi], cl ; xchg eax, esp ; sal bh, 0xFFFFFFD8 ; ret  ;  (1 found)
0xffffffff812d0af5: ror dword [rdi], 1  ; xchg eax, esp ; retn 0x6349 ;  (1 found)
0xffffffff8152994a: ror dword [rdi], 1  ; xchg eax, esp ; retn 0xB60F ;  (2 found)
0xffffffff81247ad8: ror dword [rdi], cl ; xchg eax, esp ; retn 0x850F ;  (1 found)
0xffffffff81207b22: sal al, 0xFFFFFFFF ; adc byte [r15], cl ; xchg eax, esp ; retn 0xD284 ;  (1 found)
0xffffffff810f1de1: sal byte [rax+rbx-0x10], 0xFFFFFFFF ; or byte [rdi], cl ; xchg eax, esp ; retn 0xD284 ;  (1 found)
0xffffffff8108d976: sal byte [rbx+rdx-0x10], 0xFFFFFFFF ; or byte [rdi], cl ; xchg eax, esp ; retn 0xD284 ;  (1 found)
0xffffffff81033ef3: sal byte [rsi+rsi-0x10], 0xFFFFFFFF ; sbb byte [rdi], cl ; xchg eax, esp ; retn 0xD284 ;  (1 found)
0xffffffff813b7566: sar byte [rax+0x10], 0xFFFFFF8A ; and byte [r15], cl ; xchg eax, esp ; retn 0xE083 ;  (1 found)
0xffffffff813c944e: sar dword [rcx+rcx], 0x0F ; xchg eax, esp ; retn 0xC984 ;  (1 found)
0xffffffff81182bda: sbb al, 0x0F ; xchg eax, esp ; retn 0x8B48 ;  (2 found)
0xffffffff8166c50f: sbb al, 0x0F ; xchg eax, esp ; retn 0xC031 ;  (2 found)
0xffffffff8114d8f5: sbb al, 0x0F ; xchg eax, esp ; retn 0xD284 ;  (6 found)
0xffffffff81529930: sbb byte [rax], al ; add byte [rdi], cl ; xchg eax, esp ; retn 0x394C ;  (1 found)
0xffffffff8152430b: sbb byte [rax], al ; add byte [rdi], cl ; xchg eax, esp ; retn 0xB60F ;  (6 found)
0xffffffff81224d53: sbb byte [rdi], cl ; xchg eax, esp ; retn 0xB60F ;  (1 found)
0xffffffff81033ef8: sbb byte [rdi], cl ; xchg eax, esp ; retn 0xD284 ;  (2 found)
0xffffffff816d17d8: sbb dword [rcx], edx ; xchg eax, esp ; jmp qword [rcx-0x25] ;  (1 found)
0xffffffff8159b947: sbb ecx, dword [rdi] ; xchg eax, esp ; retn 0xE083 ;  (1 found)
0xffffffff8159b946: sbb r9d, dword [r15] ; xchg eax, esp ; retn 0xE083 ;  (1 found)
0xffffffff8163c5dd: stc  ; add cl, byte [rdi] ; xchg eax, esp ; retn 0xC283 ;  (1 found)
0xffffffff811e2f31: stc  ; add cl, byte [rdi] ; xchg eax, esp ; retn 0xE2C1 ;  (1 found)
0xffffffff814baa67: stc  ; add dword [rdi], ecx ; xchg eax, esp ; retn 0x894C ;  (1 found)
0xffffffff8161b6fc: stc  ; add ecx, dword [rdi] ; xchg eax, esp ; retn 0xB60F ;  (1 found)
0xffffffff81057b7a: std  ; or byte [rdi], cl ; xchg eax, esp ; retn 0x8349 ;  (1 found)
0xffffffff8155cf7f: std  ; xchg eax, esp ; retn 0x48FF ;  (1 found)
0xffffffff814b49b7: sti  ; add dword [rdi], ecx ; xchg eax, esp ; ret  ;  (2 found)
0xffffffff81d2d520: sti  ; push 0x0F564D58 ; xchg eax, esp ; retn 0xC0FF ;  (1 found)
0xffffffff81546468: stosd  ; or dword [rax-0x77], 0x0FA6F3DE ; xchg eax, esp ; retn 0x8B48 ;  (1 found)
0xffffffff81d70d1f: stosd  ; xor dword [rcx], 0x7632E8C0 ; xchg eax, esp ; jmp qword [rsi-0x75] ;  (1 found)
0xffffffff8163f53f: sub al, 0x0F ; xchg eax, esp ; retn 0xC031 ;  (2 found)
0xffffffff815e681a: sub al, 0x0F ; xchg eax, esp ; retn 0xD284 ;  (11 found)
0xffffffff81d68f07: sub al, 0x0F ; xchg eax, esp ; retn 0xFF48 ;  (1 found)
0xffffffff81199b73: sub byte [r15], cl ; xchg eax, esp ; retn 0xC031 ;  (1 found)
0xffffffff8118a44c: sub byte [r15], r9L ; xchg eax, esp ; retn 0xD284 ;  (1 found)
0xffffffff81199b74: sub byte [rdi], cl ; xchg eax, esp ; retn 0xC031 ;  (1 found)
0xffffffff8118a44d: sub byte [rdi], cl ; xchg eax, esp ; retn 0xD284 ;  (2 found)
0xffffffff8106608e: sub eax, 0x0FC08500 ; xchg eax, esp ; retn 0xD284 ;  (1 found)
0xffffffff813692a4: test byte [rax-0x75], 0x0000007B ; or byte [rdi], cl ; xchg eax, esp ; retn 0x8348 ;  (1 found)
0xffffffff810f9d76: test byte [rcx-0x7D], 0xFFFFFFF8 ; or byte [rdi], cl ; xchg eax, esp ; retn 0xCDE8 ;  (1 found)
0xffffffff8102586d: xchg eax, esp ; adc al, byte [rax+0x72] ; retn 0x6681 ;  (1 found)
0xffffffff81addb68: xchg eax, esp ; adc byte [rax-0x0000007F], dh ; call rax ;  (1 found)
0xffffffff81902cc0: xchg eax, esp ; adc byte [rax-0x0000007F], dh ; jmp qword [rbp-0x007E4FF0] ;  (1 found)
0xffffffff8112c3ac: xchg eax, esp ; adc byte [rax], al ; add byte [rax-0x77], cl ; retn 0x8944 ;  (1 found)
0xffffffff8112c493: xchg eax, esp ; adc byte [rax], al ; add byte [rax-0x77], cl ; retn 0x8945 ;  (1 found)
0xffffffff8112c423: xchg eax, esp ; adc byte [rax], al ; add byte [rax-0x77], cl ; retn 0x894D ;  (1 found)
0xffffffff813c023c: xchg eax, esp ; add al, 0xE6 ; cmp edi, 0x64882514 ; retn 0xEB81 ;  (1 found)
0xffffffff8103fa87: xchg eax, esp ; add al, 0xE6 ; sub eax, 0x00684990 ; call qword [0x81C26158] ;  (1 found)
0xffffffff812ddbf8: xchg eax, esp ; add al, byte [rax] ; add byte [rax-0x39], cl ; ret  ;  (1 found)
0xffffffff813bb57b: xchg eax, esp ; add al, ch ; sahf  ; ret  ;  (1 found)
0xffffffff8165d0d7: xchg eax, esp ; add byte [rax-0x77], cl ; ret  ;  (1 found)
0xffffffff8158eeb1: xchg eax, esp ; add byte [rax], al ; add byte [rax+0x01], cl ; ret  ;  (1 found)
0xffffffff8109efda: xchg eax, esp ; add byte [rax], al ; add byte [rax+0x29], cl ; retn 0x8948 ;  (1 found)
0xffffffff8108eee8: xchg eax, esp ; add byte [rax], al ; add byte [rax+0x63], cl ; ret  ;  (1 found)
0xffffffff8114e508: xchg eax, esp ; add byte [rax], al ; add byte [rax-0x39], cl ; retn 0x0000 ;  (1 found)
0xffffffff814da11d: xchg eax, esp ; add byte [rax], al ; add byte [rcx+rcx*4-0x16], al ; call qword [rax+0x18] ;  (1 found)
0xffffffff815681cf: xchg eax, esp ; add byte [rax], al ; add byte [rcx-0x7D], cl ; ret  ;  (1 found)
0xffffffff813135ee: xchg eax, esp ; add byte [rax], al ; add cl, cl ; ret  ;  (1 found)
0xffffffff81159507: xchg eax, esp ; add byte [rax], al ; add dh, dh ; retn 0x7502 ;  (1 found)
0xffffffff814bb316: xchg eax, esp ; add byte [rax], al ; add rax, 0x0000000000000348 ; ret  ;  (1 found)
0xffffffff810ada07: xchg eax, esp ; add byte [rax], al ; mov rax, qword [0xFFFFFFFF81E995D8] ; call qword [rax+0x08] ;  (1 found)
0xffffffff81217bd0: xchg eax, esp ; add byte [rbx+0x5D], bl ; ret  ;  (1 found)
0xffffffff8189e241: xchg eax, esp ; add byte [rcx-0x00000001], al ; rcl byte [rax+rax-0x0000007F], 1  ; call qword [rax] ;  (2 found)
0xffffffff8124a5c8: xchg eax, esp ; add byte [rdi+0x00], 0xFFFFFF83 ; ret  ;  (1 found)
0xffffffff81d36ef1: xchg eax, esp ; add dword [rax], eax ; add byte [rax+0x6F], al ; retn 0xE981 ;  (1 found)
0xffffffff81d681c2: xchg eax, esp ; add dword [rbp+0x5BD889FF], edx ; pop rbp ; ret  ;  (1 found)
0xffffffff81112357: xchg eax, esp ; add dword [rcx-0x171A76B8], 0x000B018E ; pop rbp ; rep ret  ;  (1 found)
0xffffffff818a20b1: xchg eax, esp ; add eax, 0xFFFFFF81 ; call qword [rax-0x6B] ;  (2 found)
0xffffffff8148c670: xchg eax, esp ; add ecx, dword [rax+0x5B000000] ; pop rbp ; ret  ;  (2 found)
0xffffffff814943ec: xchg eax, esp ; and al, 0x28 ; add eax, 0x81480000 ; ret  ;  (1 found)
0xffffffff818b2779: xchg eax, esp ; and dword [rcx-0x00000001], eax ; rcl byte [rcx-0x0000007F], 1  ; call qword [rax-0x6A] ;  (2 found)
0xffffffff814e608c: xchg eax, esp ; call qword [r13+0x70] ;  (1 found)
0xffffffff814c29df: xchg eax, esp ; call qword [rax+0x000000F8] ;  (1 found)
0xffffffff816c4f10: xchg eax, esp ; call qword [rax-0x01] ;  (1 found)
0xffffffff816d15fa: xchg eax, esp ; call qword [rax] ;  (4 found)
0xffffffff81d76598: xchg eax, esp ; call qword [rbp+0x48] ;  (1 found)
0xffffffff816d18ce: xchg eax, esp ; call qword [rbx+0x73FF94BA] ;  (1 found)
0xffffffff816d161a: xchg eax, esp ; call qword [rbx] ;  (3 found)
0xffffffff816d1802: xchg eax, esp ; call qword [rcx-0x25] ;  (1 found)
0xffffffff816d18da: xchg eax, esp ; call qword [rcx-0x29006B46] ;  (1 found)
0xffffffff816d179a: xchg eax, esp ; call qword [rdi+0x7CFFFFDB] ;  (1 found)
0xffffffff81ad166a: xchg eax, esp ; call qword [rdi+rcx*4-0x03] ;  (1 found)
0xffffffff816d18ca: xchg eax, esp ; call qword [rdx+rdi*4-0x6C] ;  (1 found)
0xffffffff816d176a: xchg eax, esp ; call qword [rsi+rcx+0x0EA07F94] ;  (1 found)
0xffffffff816d1772: xchg eax, esp ; call qword [rsi+rcx+0x0EB07F94] ;  (1 found)
0xffffffff816d180a: xchg eax, esp ; call qword [rsi-0x25] ;  (1 found)
0xffffffff816d1632: xchg eax, esp ; call qword [rsi] ;  (1 found)
0xffffffff816d1792: xchg eax, esp ; call rsi ;  (2 found)
0xffffffff816d172a: xchg eax, esp ; call rsp ;  (1 found)
0xffffffff818c1b11: xchg eax, esp ; cmp eax, 0xFFFFFF81 ; call qword [rdi] ;  (1 found)
0xffffffff81e05a41: xchg eax, esp ; cmp eax, 0xFFFFFF81 ; jmp qword [0xFFFF813D+rdx*4] ;  (1 found)
0xffffffff8168dcb8: xchg eax, esp ; cmp esi, esp ; jmp qword [rsi-0x7B] ;  (1 found)
0xffffffff81d73a0c: xchg eax, esp ; dec dword [rax-0x01] ; ret  ;  (1 found)
0xffffffff816bcecc: xchg eax, esp ; dec dword [rax-0x77] ; ret  ;  (1 found)
0xffffffff81d7328b: xchg eax, esp ; dec dword [rax-0x7D] ; ret  ;  (1 found)
0xffffffff81d689c9: xchg eax, esp ; dec dword [rcx+0x5C415BD8] ; pop rbp ; ret  ;  (1 found)
0xffffffff81d735f6: xchg eax, esp ; dec ecx ; ret  ;  (1 found)
0xffffffff81add568: xchg eax, esp ; div byte [rcx-0x0000007F] ; call qword [rax-0x70] ;  (1 found)
0xffffffff8190fc40: xchg eax, esp ; div byte [rcx-0x0000007F] ; jmp qword [rbp-0x007E4E0A] ;  (1 found)
0xffffffff8132e20d: xchg eax, esp ; enter 0x4881, 0xC7 ; retn 0x7D80 ;  (1 found)
0xffffffff8132e1d0: xchg eax, esp ; enter 0x4881, 0xC7 ; retn 0x7E50 ;  (1 found)
0xffffffff8132e160: xchg eax, esp ; enter 0x4881, 0xC7 ; retn 0xE280 ;  (1 found)
0xffffffff8132e19d: xchg eax, esp ; enter 0x4881, 0xC7 ; retn 0xE3A0 ;  (1 found)
0xffffffff816d1c4c: xchg eax, esp ; fcos  ; jmp qword [rsi-0x6C00673D] ;  (1 found)
0xffffffff816d1de4: xchg eax, esp ; fcos  ; jmp rdx ;  (1 found)
0xffffffff811138f8: xchg eax, esp ; fstp dword [rdx+0x00] ; call qword [0x81C263D0] ;  (1 found)
0xffffffff816b60da: xchg eax, esp ; inc dword [rbp+0x0F0274C0] ; or ecx, ecx ; ret  ;  (1 found)
0xffffffff81543a3c: xchg eax, esp ; int1  ; inc dword [rbp+0x5D0275C0] ; ret  ;  (1 found)
0xffffffff810a83c2: xchg eax, esp ; jmp qword [rax+0x00] ;  (1 found)
0xffffffff816d177a: xchg eax, esp ; jmp qword [rax-0x2E806BF2] ;  (1 found)
0xffffffff816c1de6: xchg eax, esp ; jmp qword [rbp+0x48] ;  (1 found)
0xffffffff816d18ba: xchg eax, esp ; jmp qword [rbp-0x47] ;  (1 found)
0xffffffff816d17e2: xchg eax, esp ; jmp qword [rbx-0x25] ;  (1 found)
0xffffffff816d17da: xchg eax, esp ; jmp qword [rcx-0x25] ;  (1 found)
0xffffffff816d17ea: xchg eax, esp ; jmp qword [rdx-0x25] ;  (1 found)
0xffffffff81d6fe14: xchg eax, esp ; jmp qword [rsi+0x41] ;  (2 found)
0xffffffff81d70d26: xchg eax, esp ; jmp qword [rsi-0x75] ;  (1 found)
0xffffffff816d1682: xchg eax, esp ; jmp qword [rsi] ;  (1 found)
0xffffffff816d15e2: xchg eax, esp ; jmp rax ;  (3 found)
0xffffffff816d1742: xchg eax, esp ; jmp rcx ;  (2 found)
0xffffffff816d174a: xchg eax, esp ; jmp rdx ;  (1 found)
0xffffffff816d1762: xchg eax, esp ; jmp rsi ;  (1 found)
0xffffffff81e4d7ac: xchg eax, esp ; lahf  ; jmp r15 ;  (1 found)
0xffffffff8127dba8: xchg eax, esp ; lea rsi, qword [rbp-0x60] ; mov rdi, r14 ; call qword [r15+0x10] ;  (1 found)
0xffffffff81af285a: xchg eax, esp ; mov byte [rax], 0x00000000 ; add byte [rax], al ; ret  ;  (1 found)
0xffffffff81094d6c: xchg eax, esp ; mov byte [rax], 0xFFFFFF89 ; retn 0x3D7D ;  (1 found)
0xffffffff818e2829: xchg eax, esp ; mov byte [rcx-0x00000001], al ; and byte [rax+rcx*4-0x0000007F], dl ; jmp qword [rax-0x6C] ;  (1 found)
0xffffffff8185ed38: xchg eax, esp ; mov byte [rdx-0x0000007F], ch ; jmp qword [rdx-0x007E5578] ;  (1 found)
0xffffffff81ad0274: xchg eax, esp ; mov cl, 0xF8 ; jmp rbp ;  (1 found)
0xffffffff8104f168: xchg eax, esp ; mov dl, 0x30 ; add bl, ch ; ret  ;  (1 found)
0xffffffff814be709: xchg eax, esp ; mov eax, 0x00001388 ; pop rbp ; ret  ;  (1 found)
0xffffffff816d18d8: xchg eax, esp ; mov edx, 0xBA91FF94 ; xchg eax, esp ; call rsi ;  (1 found)
0xffffffff813def55: xchg eax, esp ; mov esi, ebx ; mov rdi, r15 ; call qword [r15+0x00000270] ;  (1 found)
0xffffffff814496c8: xchg eax, esp ; mov esp, 0xC0310000 ; leave  ; ret  ;  (1 found)
0xffffffff8111e4e5: xchg eax, esp ; mov r8, rsi ; call qword [0x81C263C0] ;  (1 found)
0xffffffff814c29ad: xchg eax, esp ; mov rdi, r14 ; call qword [rax+0x000000F8] ;  (1 found)
0xffffffff811332db: xchg eax, esp ; mov rdi, rbx ; mov rsi, r12 ; call r13 ;  (1 found)
0xffffffff81e19ad1: xchg eax, esp ; movsxd eax, dword [rcx-0x00000001] ; rcl byte [rbp-0x00007E9D], 0xFFFFFFFF ; jmp qword [rax] ;  (1 found)
0xffffffff816567cb: xchg eax, esp ; nop dword [rax+0x00] ; leave  ; ret  ;  (1 found)
0xffffffff81042eeb: xchg eax, esp ; nop dword [rax+0x00] ; mov rdi, qword [rbp-0x30] ; call qword [0x81C263C8] ;  (1 found)
0xffffffff8116517d: xchg eax, esp ; not dword [rax+0x5D000002] ; ret  ;  (1 found)
0xffffffff8126d238: xchg eax, esp ; or al, 0xEA ; dec dword [rax-0x77] ; retn 0x8B49 ;  (1 found)
0xffffffff81acd088: xchg eax, esp ; or bh, dh ; jmp qword [rbx+rdx] ;  (1 found)
0xffffffff81acd13c: xchg eax, esp ; or edi, esi ; jmp qword [rsi+0x5D000004] ;  (1 found)
0xffffffff814e22dc: xchg eax, esp ; or sil, r8L ; sub byte [rbx], r8L ; call qword [r12+0x70] ;  (1 found)
0xffffffff815f0b45: xchg eax, esp ; out 0xFF, al ; pop rbp ; ret  ;  (2 found)
0xffffffff810f3bc2: xchg eax, esp ; pop r12 ; add byte [rbx+0x5D], bl ; ret  ;  (1 found)
0xffffffff81e4db2d: xchg eax, esp ; push qword [r10] ; xchg eax, ebp ; jmp qword [r9-0x5F] ;  (1 found)
0xffffffff8139a48f: xchg eax, esp ; rcr byte [rbx+0x21], 0xFFFFFFD0 ; pop rbp ; ret  ;  (1 found)
0xffffffff81535249: xchg eax, esp ; rcr byte [rbx-0x09], 0xFFFFFFD8 ; pop rbp ; ret  ;  (1 found)
0xffffffff81000085: xchg eax, esp ; ret  ;  (48 found)
0xffffffff81104438: xchg eax, esp ; retn 0x0008 ;  (1 found)
0xffffffff8103a1d8: xchg eax, esp ; retn 0x003A ;  (1 found)
0xffffffff81afe429: xchg eax, esp ; retn 0x0088 ;  (1 found)
0xffffffff8166a01d: xchg eax, esp ; retn 0x008B ;  (1 found)
0xffffffff8166a388: xchg eax, esp ; retn 0x0090 ;  (1 found)
0xffffffff810d4cae: xchg eax, esp ; retn 0x0141 ;  (1 found)
0xffffffff813a064a: xchg eax, esp ; retn 0x01BE ;  (2 found)
0xffffffff812bf545: xchg eax, esp ; retn 0x04E8 ;  (1 found)
0xffffffff813c92ef: xchg eax, esp ; retn 0x093C ;  (1 found)
0xffffffff81075a59: xchg eax, esp ; retn 0x0941 ;  (1 found)
0xffffffff81222671: xchg eax, esp ; retn 0x0975 ;  (1 found)
0xffffffff814978ec: xchg eax, esp ; retn 0x0B74 ;  (1 found)
0xffffffff814bcfb2: xchg eax, esp ; retn 0x0E74 ;  (1 found)
0xffffffff8150085f: xchg eax, esp ; retn 0x0F41 ;  (1 found)
0xffffffff813f2f22: xchg eax, esp ; retn 0x1005 ;  (1 found)
0xffffffff81182a03: xchg eax, esp ; retn 0x148D ;  (1 found)
0xffffffff810c8558: xchg eax, esp ; retn 0x14FF ;  (1 found)
0xffffffff812bfdd0: xchg eax, esp ; retn 0x19E8 ;  (1 found)
0xffffffff814edb5e: xchg eax, esp ; retn 0x20A8 ;  (1 found)
0xffffffff810066fc: xchg eax, esp ; retn 0x2144 ;  (1 found)
0xffffffff813d0d11: xchg eax, esp ; retn 0x2175 ;  (1 found)
0xffffffff811f4cf8: xchg eax, esp ; retn 0x21E9 ;  (1 found)
0xffffffff811ab523: xchg eax, esp ; retn 0x23E9 ;  (1 found)
0xffffffff8144d45e: xchg eax, esp ; retn 0x2BE8 ;  (1 found)
0xffffffff81139fc7: xchg eax, esp ; retn 0x3145 ;  (2 found)
0xffffffff8152891e: xchg eax, esp ; retn 0x3841 ;  (1 found)
0xffffffff811182f3: xchg eax, esp ; retn 0x3844 ;  (1 found)
0xffffffff812ec2d3: xchg eax, esp ; retn 0x3944 ;  (1 found)
0xffffffff81259e65: xchg eax, esp ; retn 0x3948 ;  (1 found)
0xffffffff81529934: xchg eax, esp ; retn 0x394C ;  (1 found)
0xffffffff8158eca1: xchg eax, esp ; retn 0x3B75 ;  (1 found)
0xffffffff810dc672: xchg eax, esp ; retn 0x415B ;  (3 found)
0xffffffff81166f5f: xchg eax, esp ; retn 0x45C7 ;  (2 found)
0xffffffff81024927: xchg eax, esp ; retn 0x48A1 ;  (1 found)
0xffffffff81447c58: xchg eax, esp ; retn 0x48FF ;  (2 found)
0xffffffff810cd713: xchg eax, esp ; retn 0x4974 ;  (2 found)
0xffffffff81500abf: xchg eax, esp ; retn 0x4D89 ;  (1 found)
0xffffffff813325ce: xchg eax, esp ; retn 0x4FE9 ;  (1 found)
0xffffffff81644438: xchg eax, esp ; retn 0x5089 ;  (1 found)
0xffffffff812d07d6: xchg eax, esp ; retn 0x5489 ;  (1 found)
0xffffffff8162ccc2: xchg eax, esp ; retn 0x548D ;  (2 found)
0xffffffff811f7f04: xchg eax, esp ; retn 0x55E9 ;  (1 found)
0xffffffff8118554c: xchg eax, esp ; retn 0x5DE8 ;  (1 found)
0xffffffff8168d21b: xchg eax, esp ; retn 0x6174 ;  (1 found)
0xffffffff812d0926: xchg eax, esp ; retn 0x6349 ;  (2 found)
0xffffffff8129a6d7: xchg eax, esp ; retn 0x72E8 ;  (1 found)
0xffffffff81524a03: xchg eax, esp ; retn 0x73E9 ;  (1 found)
0xffffffff8167bb2c: xchg eax, esp ; retn 0x748D ;  (2 found)
0xffffffff811dc230: xchg eax, esp ; retn 0x752B ;  (1 found)
0xffffffff81085dd4: xchg eax, esp ; retn 0x75E8 ;  (2 found)
0xffffffff816317e6: xchg eax, esp ; retn 0x7674 ;  (1 found)
0xffffffff8130000b: xchg eax, esp ; retn 0x7CE9 ;  (1 found)
0xffffffff8152638a: xchg eax, esp ; retn 0x7D83 ;  (1 found)
0xffffffff81410cc1: xchg eax, esp ; retn 0x8041 ;  (2 found)
0xffffffff818a2420: xchg eax, esp ; retn 0x8105 ;  (1 found)
0xffffffff8103781d: xchg eax, esp ; retn 0x8341 ;  (4 found)
0xffffffff811285b1: xchg eax, esp ; retn 0x8348 ;  (2 found)
0xffffffff81057b7d: xchg eax, esp ; retn 0x8349 ;  (2 found)
0xffffffff81469c0f: xchg eax, esp ; retn 0x8389 ;  (1 found)
0xffffffff81247ada: xchg eax, esp ; retn 0x850F ;  (2 found)
0xffffffff8166c087: xchg eax, esp ; retn 0x8545 ;  (3 found)
0xffffffff812fffe3: xchg eax, esp ; retn 0x8548 ;  (5 found)
0xffffffff810b322b: xchg eax, esp ; retn 0x8841 ;  (1 found)
0xffffffff813db162: xchg eax, esp ; retn 0x885B ;  (1 found)
0xffffffff81074689: xchg eax, esp ; retn 0x8941 ;  (3 found)
0xffffffff812d4405: xchg eax, esp ; retn 0x8942 ;  (1 found)
0xffffffff8141fe32: xchg eax, esp ; retn 0x8944 ;  (3 found)
0xffffffff81623232: xchg eax, esp ; retn 0x8945 ;  (1 found)
0xffffffff810067dc: xchg eax, esp ; retn 0x8948 ;  (7 found)
0xffffffff811c0340: xchg eax, esp ; retn 0x894C ;  (6 found)
0xffffffff811bef19: xchg eax, esp ; retn 0x895B ;  (2 found)
0xffffffff81548d59: xchg eax, esp ; retn 0x8966 ;  (1 found)
0xffffffff8107ec13: xchg eax, esp ; retn 0x8B48 ;  (4 found)
0xffffffff81500a2e: xchg eax, esp ; retn 0x8D47 ;  (1 found)
0xffffffff8110248a: xchg eax, esp ; retn 0x8D48 ;  (1 found)
0xffffffff813dc604: xchg eax, esp ; retn 0x8D4C ;  (1 found)
0xffffffff8145b6e2: xchg eax, esp ; retn 0x94EB ;  (1 found)
0xffffffff814cda8d: xchg eax, esp ; retn 0x96EB ;  (1 found)
0xffffffff81111f69: xchg eax, esp ; retn 0xAFEB ;  (1 found)
0xffffffff8141c45b: xchg eax, esp ; retn 0xB4BF ;  (1 found)
0xffffffff8100543f: xchg eax, esp ; retn 0xB60F ;  (28 found)
0xffffffff812b9430: xchg eax, esp ; retn 0xB9E8 ;  (1 found)
0xffffffff81300023: xchg eax, esp ; retn 0xBEEB ;  (1 found)
0xffffffff81065353: xchg eax, esp ; retn 0xC031 ;  (18 found)
0xffffffff810c14eb: xchg eax, esp ; retn 0xC085 ;  (1 found)
0xffffffff811f4be2: xchg eax, esp ; retn 0xC0EB ;  (2 found)
0xffffffff81d2d526: xchg eax, esp ; retn 0xC0FF ;  (1 found)
0xffffffff810459cb: xchg eax, esp ; retn 0xC141 ;  (1 found)
0xffffffff81d2b964: xchg eax, esp ; retn 0xC148 ;  (1 found)
0xffffffff813c2c4e: xchg eax, esp ; retn 0xC283 ;  (3 found)
0xffffffff816a1c4b: xchg eax, esp ; retn 0xC748 ;  (1 found)
0xffffffff8146c929: xchg eax, esp ; retn 0xC7EB ;  (1 found)
0xffffffff8124db7b: xchg eax, esp ; retn 0xC883 ;  (1 found)
0xffffffff81d7345b: xchg eax, esp ; retn 0xC931 ;  (1 found)
0xffffffff813c9452: xchg eax, esp ; retn 0xC984 ;  (1 found)
0xffffffff8144d4be: xchg eax, esp ; retn 0xCBE8 ;  (1 found)
0xffffffff810f9d7c: xchg eax, esp ; retn 0xCDE8 ;  (1 found)
0xffffffff810962a2: xchg eax, esp ; retn 0xCDEB ;  (1 found)
0xffffffff81d734e9: xchg eax, esp ; retn 0xCE83 ;  (1 found)
0xffffffff816c686a: xchg eax, esp ; retn 0xCFE9 ;  (1 found)
0xffffffff8110700a: xchg eax, esp ; retn 0xD001 ;  (2 found)
0xffffffff8121c0e7: xchg eax, esp ; retn 0xD009 ;  (4 found)
0xffffffff812eb503: xchg eax, esp ; retn 0xD021 ;  (3 found)
0xffffffff813bc553: xchg eax, esp ; retn 0xD089 ;  (2 found)
0xffffffff814c19d3: xchg eax, esp ; retn 0xD138 ;  (2 found)
0xffffffff815837fc: xchg eax, esp ; retn 0xD1FF ;  (1 found)
0xffffffff8162aa30: xchg eax, esp ; retn 0xD201 ;  (1 found)
0xffffffff81033efb: xchg eax, esp ; retn 0xD284 ;  (181 found)
0xffffffff810ef760: xchg eax, esp ; retn 0xD285 ;  (1 found)
0xffffffff812d0b4a: xchg eax, esp ; retn 0xD7E9 ;  (1 found)
0xffffffff8131d027: xchg eax, esp ; retn 0xDAF7 ;  (1 found)
0xffffffff81370817: xchg eax, esp ; retn 0xE083 ;  (5 found)
0xffffffff81432cb2: xchg eax, esp ; retn 0xE183 ;  (1 found)
0xffffffff811e2f34: xchg eax, esp ; retn 0xE2C1 ;  (2 found)
0xffffffff812e891a: xchg eax, esp ; retn 0xE7EB ;  (1 found)
0xffffffff8164b642: xchg eax, esp ; retn 0xEA83 ;  (1 found)
0xffffffff81236a5e: xchg eax, esp ; retn 0xEBE8 ;  (1 found)
0xffffffff81516a16: xchg eax, esp ; retn 0xEEC1 ;  (1 found)
0xffffffff812e3fd3: xchg eax, esp ; retn 0xEFE9 ;  (1 found)
0xffffffff813a9852: xchg eax, esp ; retn 0xF631 ;  (2 found)
0xffffffff81511871: xchg eax, esp ; retn 0xF683 ;  (1 found)
0xffffffff813d3632: xchg eax, esp ; retn 0xF883 ;  (1 found)
0xffffffff81011a55: xchg eax, esp ; retn 0xFE81 ;  (1 found)
0xffffffff81644085: xchg eax, esp ; retn 0xFE83 ;  (2 found)
0xffffffff81d68f09: xchg eax, esp ; retn 0xFF48 ;  (1 found)
0xffffffff81d2ae48: xchg eax, esp ; retn 0xFF64 ;  (1 found)
0xffffffff811f9308: xchg eax, esp ; retn 0xFFE7 ;  (1 found)
0xffffffff812707da: xchg eax, esp ; retn 0xFFF0 ;  (1 found)
0xffffffff812ed0e2: xchg eax, esp ; rol byte [rax+rax*8+0x315B0875], 0xFFFFFFC0 ; pop rbp ; ret  ;  (1 found)
0xffffffff812ed218: xchg eax, esp ; rol byte [rax+rax*8+0x315B0A75], 0xFFFFFFC0 ; pop rbp ; ret  ;  (1 found)
0xffffffff812ed17e: xchg eax, esp ; rol byte [rax+rax*8+0x315B0C75], 0xFFFFFFC0 ; pop rbp ; ret  ;  (1 found)
0xffffffff811a26d5: xchg eax, esp ; rol byte [rax+rax*8+0x415B0575], 0x0000005C ; pop rbp ; ret  ;  (2 found)
0xffffffff81097c3a: xchg eax, esp ; rol byte [rax+rax*8+0x415B0775], 0x0000005C ; pop rbp ; ret  ;  (1 found)
0xffffffff8140ed72: xchg eax, esp ; rol byte [rax+rax*8+0x415B0875], 0x0000005C ; pop rbp ; ret  ;  (1 found)
0xffffffff81215069: xchg eax, esp ; rol byte [rax+rax*8+0x415B0975], 0x0000005C ; pop rbp ; ret  ;  (2 found)
0xffffffff81217fb6: xchg eax, esp ; rol byte [rax+rax*8+0x415B0C75], 0x0000005C ; pop rbp ; ret  ;  (1 found)
0xffffffff811d68eb: xchg eax, esp ; rol byte [rax+rax*8+0x415B0F75], 0x0000005C ; pop rbp ; ret  ;  (1 found)
0xffffffff810e63b7: xchg eax, esp ; rol byte [rax+rax*8+0x415BCB75], 0x0000005C ; pop rbp ; ret  ;  (1 found)
0xffffffff810e70a4: xchg eax, esp ; rol byte [rax+rax*8+0x5D5B0675], 0xFFFFFFF3 ; ret  ;  (1 found)
0xffffffff8131e7bb: xchg eax, esp ; rol byte [rax+rax*8+0x5D5B0775], 0xFFFFFFF3 ; ret  ;  (1 found)
0xffffffff811ecb3e: xchg eax, esp ; rol byte [rax+rax*8-0x04537BF1], 0xFFFFFFFF ; dec dword [rcx+rcx*4-0x19] ; call qword [r12+0x10] ;  (1 found)
0xffffffff81121167: xchg eax, esp ; rol byte [rax+rax*8-0x3FCEF48B], 0x0000005D ; ret  ;  (1 found)
0xffffffff8118f0d4: xchg eax, esp ; rol byte [rax+rax*8-0x6F0CB18B], 0xFFFFFFEB ; retn 0x90F3 ;  (1 found)
0xffffffff810b8f7a: xchg eax, esp ; rol byte [rax+rax*8-0x72B6F88C], 0x0000007E ; add al, 0x41 ; call rsp ;  (1 found)
0xffffffff811ec1dd: xchg eax, esp ; rol byte [rax+rax*8-0x76B3648C], 0xFFFFFFEF ; call qword [r13+0x10] ;  (1 found)
0xffffffff811ec410: xchg eax, esp ; rol byte [rax+rax*8-0x76B73F8C], 0xFFFFFFDF ; call qword [rbx+0x10] ;  (1 found)
0xffffffff8138e80d: xchg eax, esp ; rol byte [rax+rax*8-0x7CB7F28B], 0xFFFFFFC4 ; or byte [rbx+0x5D], bl ; ret  ;  (1 found)
0xffffffff81139fc0: xchg eax, esp ; rol byte [rbx+0x0F014079], 0xFFFFFF94 ; retn 0x3145 ;  (1 found)
0xffffffff814a6e02: xchg eax, esp ; rol byte [rcx+0x0F], 0xFFFFFF95 ; retn 0xB60F ;  (1 found)
0xffffffff81684200: xchg eax, esp ; rol byte [rcx+0x39], 0xFFFFFFC0 ; setne al ; ret  ;  (1 found)
0xffffffff81051077: xchg eax, esp ; rol byte [rcx], 0xFFFFFFC0 ; ret  ;  (1 found)
0xffffffff81543446: xchg eax, esp ; rol byte [rcx], 0xFFFFFFC8 ; pop rbp ; ret  ;  (1 found)
0xffffffff8152ad3a: xchg eax, esp ; rol dword [rbx+0x0F051C7A], 0xFFFFFF95 ; retn 0xD138 ;  (5 found)
0xffffffff81528917: xchg eax, esp ; rol dword [rbx+0x0F40787F], 0xFFFFFF94 ; retn 0x3841 ;  (1 found)
0xffffffff8113b135: xchg eax, esp ; rol dword [rcx+rcx*8+0x1F0FA175], 0x44 ; add byte [rax], al ; ret  ;  (1 found)
0xffffffff815434b4: xchg eax, esp ; ror byte [rax-0x73], 0x00000014 ; add byte [rcx+0x01485DF6], cl ; retn 0x8D48 ;  (1 found)
0xffffffff8105103f: xchg eax, esp ; ror byte [rax-0x77], 0xFFFFFFE5 ; pop rbp ; ret  ;  (10 found)
0xffffffff811f8077: xchg eax, esp ; ror byte [rax-0x7D], 0xFFFFFFC1 ; and byte [rcx], al ; retn 0x3948 ;  (1 found)
0xffffffff811f4e2f: xchg eax, esp ; ror byte [rax-0x7D], 0xFFFFFFC1 ; cmp byte [rcx], al ; retn 0x3948 ;  (1 found)
0xffffffff81380518: xchg eax, esp ; ror byte [rax-0x7D], 0xFFFFFFC4 ; or byte [rbx+0x5D], bl ; ret  ;  (1 found)
0xffffffff812eb4fd: xchg eax, esp ; ror byte [rcx+rdi-0x15], 0x0000000F ; xchg eax, esp ; retn 0xD021 ;  (1 found)
0xffffffff812b861d: xchg eax, esp ; ror byte [rdi], 0xFFFFFFB6 ; sal bh, 0xFFFFFFD8 ; ret  ;  (1 found)
0xffffffff8155ea11: xchg eax, esp ; ror dword [rcx+rcx*4-0x11], 0xFFFFFFE8 ; adc eax, 0x89FFFF8A ; retn 0xC748 ;  (1 found)
0xffffffff8103daab: xchg eax, esp ; sal bh, 0xFFFFFFD8 ; pop rbp ; ret  ;  (2 found)
0xffffffff8165adba: xchg eax, esp ; sal bh, 0xFFFFFFD8 ; ret  ;  (1 found)
0xffffffff813c944d: xchg eax, esp ; sar dword [rcx+rcx], 0x0F ; xchg eax, esp ; retn 0xC984 ;  (1 found)
0xffffffff813a9016: xchg eax, esp ; shl dword [rsi+0x41], 0xFFFFFFF7 ; retn 0x0800 ;  (1 found)
0xffffffff81943ce0: xchg eax, esp ; sti  ; int3  ; ret  ;  (1 found)
0xffffffff814f1cfc: xchg eax, esp ; stosb  ; add byte [rdx], al ; call qword [0x81C263D8] ;  (1 found)
0xffffffff81363164: xchg eax, esp ; str word [rax-0x77] ; ret  ;  (1 found)
0xffffffff8190a640: xchg eax, esp ; sub esi, dword [rcx-0x0000007F] ; jmp qword [rbp-0x007E4ED5] ;  (1 found)
0xffffffff81257cd8: xchg eax, esp ; test al, 0xFF ; inc dword [rbx-0x0000D743] ; jmp qword [rcx+0x0105850F] ;  (1 found)
0xffffffff818df6c9: xchg eax, esp ; test dword [rcx-0x00000001], eax ; adc byte [rsi-0x00007E7B], 0xFFFFFFFF ; call qword [rax-0x007E7A6A] ;  (1 found)
0xffffffff81883b98: xchg eax, esp ; xchg dword [rbx-0x0000007F], ebp ; jmp qword [rbp+0x68] ;  (1 found)
0xffffffff818e1449: xchg eax, esp ; xchg dword [rcx-0x00000001], eax ; rcl byte [rbp-0x00007E79], 0xFFFFFFFF ; jmp rax ;  (1 found)
0xffffffff816d1571: xchg eax, esp ; xchg eax, ebx ; jmp qword [rdi] ;  (1 found)
0xffffffff8165d0d6: xchg eax, esp ; xchg eax, esp ; add byte [rax-0x77], cl ; ret  ;  (1 found)
0xffffffff81ad1618: xchg eax, esp ; xchg ebp, edi ; call qword [rax-0x7AFFFFF9] ;  (1 found)
0xffffffff810d49e8: xchg eax, esp ; xchg ebx, edi ; jmp qword [rbp+0x48] ;  (1 found)
0xffffffff8152a588: xchg eax, esp ; xor al, 0x00 ; add byte [rax-0x39], cl ; retn 0xD618 ;  (1 found)
0xffffffff81397bc2: xchg eax, esp ; xor al, byte [rax] ; pop rbp ; ret  ;  (1 found)
0xffffffff812fc023: xor al, 0x0F ; xchg eax, esp ; retn 0xD284 ;  (8 found)
0xffffffff81d76592: xor dword [rcx], 0x13DAE8C0 ; xchg eax, esp ; call qword [rbp+0x48] ;  (1 found)
0xffffffff81d73a06: xor dword [rcx], 0x494CE8C0 ; xchg eax, esp ; dec dword [rax-0x01] ; ret  ;  (1 found)
0xffffffff81d73285: xor dword [rcx], 0x50CDE8C0 ; xchg eax, esp ; dec dword [rax-0x7D] ; ret  ;  (1 found)
0xffffffff81d70d20: xor dword [rcx], 0x7632E8C0 ; xchg eax, esp ; jmp qword [rsi-0x75] ;  (1 found)
0xffffffff81d6fe0e: xor dword [rcx], 0x8544E8C0 ; xchg eax, esp ; jmp qword [rsi+0x41] ;  (1 found)
0xffffffff8124a5c6: xor eax, ebp ; xchg eax, esp ; add byte [rdi+0x00], 0xFFFFFF83 ; ret  ;  (1 found)
0xffffffff816d1680: xor ecx, dword [rbx] ; xchg eax, esp ; jmp qword [rsi] ;  (1 found)
0xffffffff816d1798: xor ecx, dword [rdi] ; xchg eax, esp ; call qword [rdi+0x7CFFFFDB] ;  (1 found)
